; Function Attrs: inlinehint mustprogress nofree norecurse nosync nounwind sspstrong willreturn memory(read, inaccessiblemem: none) uwtable
define internal fastcc range(i32 0, 32) i32 @rb_type(i64 noundef %0) unnamed_addr #7 {
  %2 = icmp eq i64 %0, 0
  %3 = and i64 %0, 7
  %4 = icmp ne i64 %3, 0
  %5 = or i1 %2, %4
  br i1 %5, label %11, label %6

6:                                                ; preds = %1
  %7 = inttoptr i64 %0 to ptr
  %8 = load i64, ptr %7, align 8, !tbaa !56
  %9 = trunc i64 %8 to i32
  %10 = and i32 %9, 31
  br label %19

11:                                               ; preds = %1
  %12 = tail call i64 @llvm.fshl.i64(i64 %0, i64 %0, i64 62)
  %13 = icmp ult i64 %12, 10
  br i1 %13, label %switch.hole_check, label %14

14:                                               ; preds = %switch.hole_check, %11
  %15 = and i64 %0, 1
  %.not = icmp eq i64 %15, 0
  br i1 %.not, label %16, label %19

16:                                               ; preds = %14
  %17 = and i64 %0, 254
  %18 = icmp eq i64 %17, 12
  %spec.select = select i1 %18, i32 20, i32 4
  br label %19

switch.hole_check:                                ; preds = %11
  %switch.maskindex = trunc nuw i64 %12 to i16
  %switch.shifted = lshr i16 547, %switch.maskindex
  %switch.lobit = trunc i16 %switch.shifted to i1
  br i1 %switch.lobit, label %switch.lookup, label %14

switch.lookup:                                    ; preds = %switch.hole_check
  %switch.gep = getelementptr inbounds nuw [10 x i32], ptr @switch.table.rb_type, i64 0, i64 %12
  %switch.load = load i32, ptr %switch.gep, align 4
  br label %19

19:                                               ; preds = %switch.lookup, %16, %14, %6
  %.0 = phi i32 [ %10, %6 ], [ 21, %14 ], [ %spec.select, %16 ], [ %switch.load, %switch.lookup ]
  ret i32 %.0
}